; Function Attrs: nounwind uwtable
define void @Abc_NtkRetimeBackwardInitialFinish(ptr noundef readonly captures(none) %0, ptr noundef %1, ptr noundef %2, i32 noundef %3) local_unnamed_addr #0 {
  %5 = getelementptr inbounds nuw i8, ptr %0, i64 32
  %6 = load ptr, ptr %5, align 8, !tbaa !45
  %7 = getelementptr i8, ptr %6, i64 4
  %.val25 = load i32, ptr %7, align 4, !tbaa !34
  %8 = icmp sgt i32 %.val25, 0
  br i1 %8, label %.lr.ph, label %.critedge

.lr.ph:                                           ; preds = %4, %21
  %9 = phi ptr [ %22, %21 ], [ %6, %4 ]
  %indvars.iv = phi i64 [ %indvars.iv.next, %21 ], [ 0, %4 ]
  %10 = getelementptr i8, ptr %9, i64 8
  %.val22.val = load ptr, ptr %10, align 8, !tbaa !36
  %11 = getelementptr inbounds nuw ptr, ptr %.val22.val, i64 %indvars.iv
  %12 = load ptr, ptr %11, align 8, !tbaa !37
  %13 = icmp eq ptr %12, null
  br i1 %13, label %21, label %14

14:                                               ; preds = %.lr.ph
  %15 = getelementptr i8, ptr %12, i64 20
  %.val23 = load i32, ptr %15, align 4
  %16 = and i32 %.val23, 15
  %.not24 = icmp eq i32 %16, 8
  br i1 %.not24, label %17, label %21

17:                                               ; preds = %14
  %18 = getelementptr inbounds nuw i8, ptr %12, i64 64
  %19 = load ptr, ptr %18, align 8, !tbaa !38
  %20 = tail call ptr @Abc_NtkCreateObj(ptr noundef %1, i32 noundef 2) #15
  tail call void @Abc_ObjAddFanin(ptr noundef %19, ptr noundef %20) #15
  %.pre = load ptr, ptr %5, align 8, !tbaa !45
  br label %21

21:                                               ; preds = %.lr.ph, %17, %14
  %22 = phi ptr [ %9, %.lr.ph ], [ %.pre, %17 ], [ %9, %14 ]
  %indvars.iv.next = add nuw nsw i64 %indvars.iv, 1
  %23 = getelementptr i8, ptr %22, i64 4
  %.val = load i32, ptr %23, align 4, !tbaa !34
  %24 = sext i32 %.val to i64
  %25 = icmp slt i64 %indvars.iv.next, %24
  br i1 %25, label %.lr.ph, label %.critedge, !llvm.loop !63

.critedge:                                        ; preds = %21, %4
  tail call void @Abc_NtkAddDummyPiNames(ptr noundef %1) #15
  tail call void @Abc_NtkAddDummyPoNames(ptr noundef %1) #15
  %26 = tail call i32 @Abc_NtkCheck(ptr noundef %1) #15
  %.not = icmp eq i32 %26, 0
  br i1 %.not, label %27, label %30

27:                                               ; preds = %.critedge
  %28 = load ptr, ptr @stdout, align 8, !tbaa !52
  %29 = tail call i64 @fwrite(ptr nonnull @.str.7, i64 64, i64 1, ptr %28)
  br label %30

30:                                               ; preds = %27, %.critedge
  %31 = tail call ptr @Abc_NtkRetimeInitialValues(ptr noundef %1, ptr noundef %2, i32 noundef %3)
  tail call void @Abc_NtkRetimeInsertLatchValues(ptr noundef nonnull %0, ptr noundef %31)
  %.not20 = icmp eq ptr %31, null
  br i1 %.not20, label %36, label %32

32:                                               ; preds = %30
  %33 = getelementptr inbounds nuw i8, ptr %31, i64 8
  %34 = load ptr, ptr %33, align 8, !tbaa !11
  %.not.i = icmp eq ptr %34, null
  br i1 %.not.i, label %Vec_IntFree.exit, label %35

35:                                               ; preds = %32
  tail call void @free(ptr noundef nonnull %34) #15
  br label %Vec_IntFree.exit

Vec_IntFree.exit:                                 ; preds = %32, %35
  tail call void @free(ptr noundef nonnull %31) #15
  br label %36

36:                                               ; preds = %Vec_IntFree.exit, %30
  ret void
}